target datalayout = "e-m:e-p270:32:32-p271:32:32-p272:64:64-i64:64-i128:128-f80:128-n8:16:32:64-S128"
target triple = "x86_64-pc-linux-gnu"

%struct._object = type { %union.anon, ptr }
%union.anon = type { i64 }
%struct.ProfilerObject = type { %struct._object, ptr, ptr, ptr, i32, ptr, double, i32, ptr }
%struct._ProfilerContext = type { i64, i64, ptr, ptr }

@_Py_NoneStruct = external global %struct._object, align 8
@PyExc_RuntimeError = external global ptr, align 8
@.str.36 = private unnamed_addr constant [40 x i8] c"cannot clear profiler in external timer\00", align 1

; Function Attrs: nounwind uwtable
define internal void @clearEntries(ptr noundef %0) #0 {
  %2 = alloca ptr, align 8
  %3 = alloca ptr, align 8
  store ptr %0, ptr %2, align 8, !tbaa !24
  %4 = load ptr, ptr %2, align 8, !tbaa !24
  %5 = getelementptr inbounds nuw %struct.ProfilerObject, ptr %4, i32 0, i32 1
  %6 = load ptr, ptr %5, align 8, !tbaa !49
  %7 = call i32 @RotatingTree_Enum(ptr noundef %6, ptr noundef @freeEntry, ptr noundef null)
  %8 = load ptr, ptr %2, align 8, !tbaa !24
  %9 = getelementptr inbounds nuw %struct.ProfilerObject, ptr %8, i32 0, i32 1
  store ptr null, ptr %9, align 8, !tbaa !49
  %10 = load ptr, ptr %2, align 8, !tbaa !24
  %11 = getelementptr inbounds nuw %struct.ProfilerObject, ptr %10, i32 0, i32 2
  %12 = load ptr, ptr %11, align 8, !tbaa !92
  %13 = icmp ne ptr %12, null
  br i1 %13, label %14, label %20

14:                                               ; preds = %1
  %15 = load ptr, ptr %2, align 8, !tbaa !24
  %16 = getelementptr inbounds nuw %struct.ProfilerObject, ptr %15, i32 0, i32 2
  %17 = load ptr, ptr %16, align 8, !tbaa !92
  call void @PyMem_Free(ptr noundef %17)
  %18 = load ptr, ptr %2, align 8, !tbaa !24
  %19 = getelementptr inbounds nuw %struct.ProfilerObject, ptr %18, i32 0, i32 2
  store ptr null, ptr %19, align 8, !tbaa !92
  br label %20

20:                                               ; preds = %14, %1
  br label %21

21:                                               ; preds = %26, %20
  %22 = load ptr, ptr %2, align 8, !tbaa !24
  %23 = getelementptr inbounds nuw %struct.ProfilerObject, ptr %22, i32 0, i32 3
  %24 = load ptr, ptr %23, align 8, !tbaa !104
  %25 = icmp ne ptr %24, null
  br i1 %25, label %26, label %36

26:                                               ; preds = %21
  call void @llvm.lifetime.start.p0(i64 8, ptr %3) #6
  %27 = load ptr, ptr %2, align 8, !tbaa !24
  %28 = getelementptr inbounds nuw %struct.ProfilerObject, ptr %27, i32 0, i32 3
  %29 = load ptr, ptr %28, align 8, !tbaa !104
  store ptr %29, ptr %3, align 8, !tbaa !93
  %30 = load ptr, ptr %3, align 8, !tbaa !93
  %31 = getelementptr inbounds nuw %struct._ProfilerContext, ptr %30, i32 0, i32 2
  %32 = load ptr, ptr %31, align 8, !tbaa !96
  %33 = load ptr, ptr %2, align 8, !tbaa !24
  %34 = getelementptr inbounds nuw %struct.ProfilerObject, ptr %33, i32 0, i32 3
  store ptr %32, ptr %34, align 8, !tbaa !104
  %35 = load ptr, ptr %3, align 8, !tbaa !93
  call void @PyMem_Free(ptr noundef %35)
  call void @llvm.lifetime.end.p0(i64 8, ptr %3) #6
  br label %21, !llvm.loop !105

36:                                               ; preds = %21
  %37 = load ptr, ptr %2, align 8, !tbaa !24
  %38 = getelementptr inbounds nuw %struct.ProfilerObject, ptr %37, i32 0, i32 3
  store ptr null, ptr %38, align 8, !tbaa !104
  ret void
}

; Function Attrs: nounwind uwtable
define internal ptr @_lsprof_Profiler_clear_impl(ptr noundef %0) #0 {
  %2 = alloca ptr, align 8
  %3 = alloca ptr, align 8
  store ptr %0, ptr %3, align 8, !tbaa !24
  %4 = load ptr, ptr %3, align 8, !tbaa !24
  %5 = getelementptr inbounds nuw %struct.ProfilerObject, ptr %4, i32 0, i32 4
  %6 = load i32, ptr %5, align 8, !tbaa !31
  %7 = and i32 %6, 8
  %8 = icmp ne i32 %7, 0
  br i1 %8, label %9, label %11

9:                                                ; preds = %1
  %10 = load ptr, ptr @PyExc_RuntimeError, align 8, !tbaa !3
  call void @PyErr_SetString(ptr noundef %10, ptr noundef @.str.36)
  store ptr null, ptr %2, align 8
  br label %13

11:                                               ; preds = %1
  %12 = load ptr, ptr %3, align 8, !tbaa !24
  call void @clearEntries(ptr noundef %12)
  store ptr @_Py_NoneStruct, ptr %2, align 8
  br label %13

13:                                               ; preds = %11, %9
  %14 = load ptr, ptr %2, align 8
  ret ptr %14
}

; Function Attrs: nounwind uwtable
define internal ptr @_lsprof_Profiler_clear(ptr noundef %0, ptr noundef %1) #0 {
  %3 = alloca ptr, align 8
  %4 = alloca ptr, align 8
  store ptr %0, ptr %3, align 8, !tbaa !3
  store ptr %1, ptr %4, align 8, !tbaa !3
  %5 = load ptr, ptr %3, align 8, !tbaa !3
  %6 = call ptr @_lsprof_Profiler_clear_impl(ptr noundef %5)
  ret ptr %6
}