; Function Attrs: nounwind uwtable
define internal noundef ptr @_lsprof_Profiler_clear(ptr noundef captures(none) %0, ptr readnone captures(none) %1) #0 {
  %3 = getelementptr inbounds nuw i8, ptr %0, i64 40
  %4 = load i32, ptr %3, align 8, !tbaa !26
  %5 = and i32 %4, 8
  %.not.i = icmp eq i32 %5, 0
  br i1 %.not.i, label %8, label %6

6:                                                ; preds = %2
  %7 = load ptr, ptr @PyExc_RuntimeError, align 8, !tbaa !48
  tail call void @PyErr_SetString(ptr noundef %7, ptr noundef nonnull @.str.36) #5
  br label %_lsprof_Profiler_clear_impl.exit

8:                                                ; preds = %2
  %9 = getelementptr inbounds nuw i8, ptr %0, i64 16
  %10 = load ptr, ptr %9, align 8, !tbaa !38
  %11 = tail call i32 @RotatingTree_Enum(ptr noundef %10, ptr noundef nonnull @freeEntry, ptr noundef null) #5
  store ptr null, ptr %9, align 8, !tbaa !38
  %12 = getelementptr inbounds nuw i8, ptr %0, i64 24
  %13 = load ptr, ptr %12, align 8, !tbaa !31
  %.not.i.i = icmp eq ptr %13, null
  br i1 %.not.i.i, label %15, label %14

14:                                               ; preds = %8
  tail call void @PyMem_Free(ptr noundef nonnull %13) #5
  store ptr null, ptr %12, align 8, !tbaa !31
  br label %15

15:                                               ; preds = %14, %8
  %16 = getelementptr inbounds nuw i8, ptr %0, i64 32
  %17 = load ptr, ptr %16, align 8, !tbaa !39
  %.not1213.i.i = icmp eq ptr %17, null
  br i1 %.not1213.i.i, label %clearEntries.exit.i, label %.lr.ph.i.i

.lr.ph.i.i:                                       ; preds = %15, %.lr.ph.i.i
  %18 = phi ptr [ %21, %.lr.ph.i.i ], [ %17, %15 ]
  %19 = getelementptr inbounds nuw i8, ptr %18, i64 16
  %20 = load ptr, ptr %19, align 8, !tbaa !35
  store ptr %20, ptr %16, align 8, !tbaa !39
  tail call void @PyMem_Free(ptr noundef nonnull %18) #5
  %21 = load ptr, ptr %16, align 8, !tbaa !39
  %.not12.i.i = icmp eq ptr %21, null
  br i1 %.not12.i.i, label %clearEntries.exit.i, label %.lr.ph.i.i, !llvm.loop !40

clearEntries.exit.i:                              ; preds = %.lr.ph.i.i, %15
  store ptr null, ptr %16, align 8, !tbaa !39
  br label %_lsprof_Profiler_clear_impl.exit

_lsprof_Profiler_clear_impl.exit:                 ; preds = %6, %clearEntries.exit.i
  %.0.i = phi ptr [ null, %6 ], [ @_Py_NoneStruct, %clearEntries.exit.i ]
  ret ptr %.0.i
}